target datalayout = "e-m:e-p270:32:32-p271:32:32-p272:64:64-i64:64-i128:128-f80:128-n8:16:32:64-S128"
target triple = "x86_64-pc-linux-gnu"

%struct.PROV_ML_DSA_CTX = type { ptr, ptr, [255 x i8], i64, [32 x i8], i64, i32, i32, i32, [256 x i8], i64, i32 }

@.str = private unnamed_addr constant [60 x i8] c"../openssl/providers/implementations/signature/ml_dsa_sig.c\00", align 1

; Function Attrs: nounwind uwtable
define internal ptr @ml_dsa_newctx(ptr noundef %0, i32 noundef %1, ptr noundef %2) #0 {
  %4 = alloca ptr, align 8
  %5 = alloca ptr, align 8
  %6 = alloca i32, align 4
  %7 = alloca ptr, align 8
  %8 = alloca ptr, align 8
  %9 = alloca i32, align 4
  store ptr %0, ptr %5, align 8, !tbaa !3
  store i32 %1, ptr %6, align 4, !tbaa !15
  store ptr %2, ptr %7, align 8, !tbaa !7
  call void @llvm.lifetime.start.p0(i64 8, ptr %8) #6
  %10 = call i32 @ossl_prov_is_running()
  %11 = icmp ne i32 %10, 0
  br i1 %11, label %13, label %12

12:                                               ; preds = %3
  store ptr null, ptr %4, align 8
  store i32 1, ptr %9, align 4
  br label %29

13:                                               ; preds = %3
  %14 = call noalias ptr @CRYPTO_zalloc(i64 noundef 608, ptr noundef @.str, i32 noundef 74)
  store ptr %14, ptr %8, align 8, !tbaa !3
  %15 = load ptr, ptr %8, align 8, !tbaa !3
  %16 = icmp eq ptr %15, null
  br i1 %16, label %17, label %18

17:                                               ; preds = %13
  store ptr null, ptr %4, align 8
  store i32 1, ptr %9, align 4
  br label %29

18:                                               ; preds = %13
  %19 = load ptr, ptr %5, align 8, !tbaa !3
  %20 = call ptr @ossl_prov_ctx_get0_libctx(ptr noundef %19)
  %21 = load ptr, ptr %8, align 8, !tbaa !3
  %22 = getelementptr inbounds nuw %struct.PROV_ML_DSA_CTX, ptr %21, i32 0, i32 1
  store ptr %20, ptr %22, align 8, !tbaa !22
  %23 = load ptr, ptr %8, align 8, !tbaa !3
  %24 = getelementptr inbounds nuw %struct.PROV_ML_DSA_CTX, ptr %23, i32 0, i32 6
  store i32 1, ptr %24, align 8, !tbaa !26
  %25 = load i32, ptr %6, align 4, !tbaa !15
  %26 = load ptr, ptr %8, align 8, !tbaa !3
  %27 = getelementptr inbounds nuw %struct.PROV_ML_DSA_CTX, ptr %26, i32 0, i32 8
  store i32 %25, ptr %27, align 8, !tbaa !29
  %28 = load ptr, ptr %8, align 8, !tbaa !3
  store ptr %28, ptr %4, align 8
  store i32 1, ptr %9, align 4
  br label %29

29:                                               ; preds = %18, %17, %12
  call void @llvm.lifetime.end.p0(i64 8, ptr %8) #6
  %30 = load ptr, ptr %4, align 8
  ret ptr %30
}

; Function Attrs: nounwind uwtable
define internal ptr @ml_dsa_87_newctx(ptr noundef %0, ptr noundef %1) #0 {
  %3 = alloca ptr, align 8
  %4 = alloca ptr, align 8
  store ptr %0, ptr %3, align 8, !tbaa !3
  store ptr %1, ptr %4, align 8, !tbaa !7
  %5 = load ptr, ptr %3, align 8, !tbaa !3
  %6 = load ptr, ptr %4, align 8, !tbaa !7
  %7 = call ptr @ml_dsa_newctx(ptr noundef %5, i32 noundef 1459, ptr noundef %6)
  ret ptr %7
}