; Function Attrs: nounwind uwtable
define internal noalias ptr @ml_dsa_87_newctx(ptr noundef %0, ptr readnone captures(none) %1) #0 {
  %3 = tail call i32 @ossl_prov_is_running() #6
  %.not.i = icmp eq i32 %3, 0
  br i1 %.not.i, label %ml_dsa_newctx.exit, label %4

4:                                                ; preds = %2
  %5 = tail call noalias ptr @CRYPTO_zalloc(i64 noundef 608, ptr noundef nonnull @.str, i32 noundef 74) #6
  %6 = icmp eq ptr %5, null
  br i1 %6, label %ml_dsa_newctx.exit, label %7

7:                                                ; preds = %4
  %8 = tail call ptr @ossl_prov_ctx_get0_libctx(ptr noundef %0) #6
  %9 = getelementptr inbounds nuw i8, ptr %5, i64 8
  store ptr %8, ptr %9, align 8, !tbaa !3
  %10 = getelementptr inbounds nuw i8, ptr %5, i64 320
  store i32 1, ptr %10, align 8, !tbaa !12
  %11 = getelementptr inbounds nuw i8, ptr %5, i64 328
  store i32 1459, ptr %11, align 8, !tbaa !13
  br label %ml_dsa_newctx.exit

ml_dsa_newctx.exit:                               ; preds = %2, %4, %7
  %.0.i = phi ptr [ %5, %7 ], [ null, %2 ], [ null, %4 ]
  ret ptr %.0.i
}